; Function Attrs: nounwind uwtable
define internal range(i32 0, 2) i32 @drbg_ctr_reseed(ptr noundef readonly captures(none) %0, ptr noundef captures(address_is_null) %1, i64 noundef %2, ptr noundef captures(address_is_null) %3, i64 noundef %4) #0 {
  %6 = icmp eq ptr %1, null
  br i1 %6, label %19, label %7

7:                                                ; preds = %5
  %8 = getelementptr inbounds nuw i8, ptr %0, i64 240
  %9 = load ptr, ptr %8, align 8, !tbaa !3
  %10 = getelementptr inbounds nuw i8, ptr %9, i64 84
  br label %11

11:                                               ; preds = %11, %7
  %indvars.iv.i = phi i64 [ %indvars.iv.next.i, %11 ], [ 16, %7 ]
  %.0.i = phi i32 [ %17, %11 ], [ 1, %7 ]
  %indvars.iv.next.i = add nsw i64 %indvars.iv.i, -1
  %12 = getelementptr inbounds nuw i8, ptr %10, i64 %indvars.iv.next.i
  %13 = load i8, ptr %12, align 1, !tbaa !26
  %14 = zext i8 %13 to i32
  %15 = add nuw nsw i32 %.0.i, %14
  %16 = trunc i32 %15 to i8
  store i8 %16, ptr %12, align 1, !tbaa !26
  %17 = lshr i32 %15, 8
  %.not.i = icmp eq i64 %indvars.iv.next.i, 0
  br i1 %.not.i, label %inc_128.exit, label %11, !llvm.loop !38

inc_128.exit:                                     ; preds = %11
  %18 = tail call fastcc i32 @ctr_update(ptr noundef %0, ptr noundef nonnull %1, i64 noundef %2, ptr noundef %3, i64 noundef %4, ptr noundef null, i64 noundef 0)
  br label %19

19:                                               ; preds = %inc_128.exit, %5
  %.0 = phi i32 [ 0, %5 ], [ %18, %inc_128.exit ]
  ret i32 %.0
}